; Function Attrs: nounwind uwtable
define void @ff_opus_rc_enc_uint_tri(ptr noundef captures(none) %0, i32 noundef %1, i32 noundef %2) local_unnamed_addr #1 {
  %4 = ashr i32 %2, 1
  %5 = add nsw i32 %4, 1
  %6 = mul nsw i32 %5, %5
  %.not = icmp ugt i32 %1, %4
  br i1 %.not, label %11, label %7

7:                                                ; preds = %3
  %8 = add i32 %1, 1
  %9 = mul i32 %8, %1
  %10 = lshr i32 %9, 1
  br label %17

11:                                               ; preds = %3
  %reass.sub = sub i32 %2, %1
  %12 = add i32 %reass.sub, 1
  %13 = add i32 %reass.sub, 2
  %14 = mul i32 %12, %13
  %15 = lshr i32 %14, 1
  %16 = sub nsw i32 %6, %15
  br label %17

17:                                               ; preds = %11, %7
  %.018 = phi i32 [ %10, %7 ], [ %16, %11 ]
  %.0 = phi i32 [ %8, %7 ], [ %12, %11 ]
  %18 = getelementptr inbounds nuw i8, ptr %0, i64 56
  %19 = load i32, ptr %18, align 8, !tbaa !8
  %20 = udiv i32 %19, %6
  %.not25.i = icmp eq i32 %.018, 0
  %.neg.i = sub i32 %.018, %6
  %.neg22.i = mul i32 %20, %.neg.i
  %21 = add i32 %.neg22.i, %19
  %22 = select i1 %.not25.i, i32 0, i32 %21
  %23 = getelementptr inbounds nuw i8, ptr %0, i64 60
  %24 = load i32, ptr %23, align 4, !tbaa !15
  %25 = add i32 %22, %24
  store i32 %25, ptr %23, align 4, !tbaa !15
  %.neg23.i = add i32 %.neg.i, %.0
  %.neg24.i = mul i32 %20, %.neg23.i
  %26 = add i32 %.neg24.i, %19
  %27 = select i1 %.not25.i, i32 %26, i32 0
  %28 = select i1 %.not25.i, i32 0, i32 %20
  %29 = mul i32 %28, %.0
  %30 = add i32 %27, %29
  store i32 %30, ptr %18, align 8, !tbaa !8
  %31 = icmp ult i32 %30, 8388609
  br i1 %31, label %.lr.ph22, label %opus_rc_enc_normalize.exit

.lr.ph22:                                         ; preds = %17
  %32 = getelementptr inbounds nuw i8, ptr %0, i64 1372
  %33 = getelementptr inbounds nuw i8, ptr %0, i64 1360
  %34 = getelementptr inbounds nuw i8, ptr %0, i64 1368
  %35 = getelementptr inbounds nuw i8, ptr %0, i64 32
  %36 = getelementptr inbounds nuw i8, ptr %0, i64 64
  br label %37

37:                                               ; preds = %.lr.ph22, %opus_rc_enc_carryout.exit.i
  %38 = phi i32 [ %30, %.lr.ph22 ], [ %76, %opus_rc_enc_carryout.exit.i ]
  %39 = phi i32 [ %25, %.lr.ph22 ], [ %75, %opus_rc_enc_carryout.exit.i ]
  %40 = lshr i32 %39, 23
  %41 = lshr i32 %39, 31
  %42 = icmp eq i32 %40, 255
  br i1 %42, label %43, label %46

43:                                               ; preds = %37
  %44 = load i32, ptr %34, align 8, !tbaa !24
  %45 = add nsw i32 %44, 1
  store i32 %45, ptr %34, align 8, !tbaa !24
  br label %opus_rc_enc_carryout.exit.i

46:                                               ; preds = %37
  %47 = load i32, ptr %32, align 4, !tbaa !25
  %48 = add nsw i32 %47, %41
  %49 = trunc i32 %48 to i8
  %50 = load ptr, ptr %33, align 8, !tbaa !26
  store i8 %49, ptr %50, align 1, !tbaa !22
  %51 = load i32, ptr %32, align 4, !tbaa !25
  %52 = icmp sgt i32 %51, -1
  %53 = load ptr, ptr %33, align 8, !tbaa !26
  %54 = zext i1 %52 to i64
  %55 = getelementptr inbounds nuw i8, ptr %53, i64 %54
  store ptr %55, ptr %33, align 8, !tbaa !26
  %56 = load i32, ptr %34, align 8, !tbaa !24
  %57 = icmp sgt i32 %56, 0
  br i1 %57, label %.lr.ph, label %._crit_edge

.lr.ph:                                           ; preds = %46
  %58 = trunc nuw nsw i32 %41 to i8
  %59 = add nsw i8 %58, -1
  br label %60

60:                                               ; preds = %.lr.ph, %60
  %61 = load ptr, ptr %33, align 8, !tbaa !26
  %62 = getelementptr inbounds nuw i8, ptr %61, i64 1
  store ptr %62, ptr %33, align 8, !tbaa !26
  store i8 %59, ptr %61, align 1, !tbaa !22
  %63 = load i32, ptr %34, align 8, !tbaa !24
  %64 = add nsw i32 %63, -1
  store i32 %64, ptr %34, align 8, !tbaa !24
  %65 = icmp sgt i32 %63, 1
  br i1 %65, label %60, label %._crit_edge.loopexit, !llvm.loop !27

._crit_edge.loopexit:                             ; preds = %60
  %.pre = load ptr, ptr %33, align 8, !tbaa !26
  br label %._crit_edge

._crit_edge:                                      ; preds = %._crit_edge.loopexit, %46
  %66 = phi ptr [ %.pre, %._crit_edge.loopexit ], [ %55, %46 ]
  %67 = load ptr, ptr %35, align 8, !tbaa !28
  %68 = icmp ult ptr %66, %67
  br i1 %68, label %70, label %69

69:                                               ; preds = %._crit_edge
  tail call void (ptr, i32, ptr, ...) @av_log(ptr noundef null, i32 noundef 0, ptr noundef nonnull @.str, ptr noundef nonnull @.str.1, ptr noundef nonnull @.str.2, i32 noundef 43) #8
  tail call void @abort() #9
  unreachable

70:                                               ; preds = %._crit_edge
  %71 = and i32 %40, 255
  store i32 %71, ptr %32, align 4, !tbaa !25
  %.pre24 = load i32, ptr %23, align 4, !tbaa !15
  %.pre25 = load i32, ptr %18, align 8, !tbaa !8
  br label %opus_rc_enc_carryout.exit.i

opus_rc_enc_carryout.exit.i:                      ; preds = %70, %43
  %72 = phi i32 [ %.pre25, %70 ], [ %38, %43 ]
  %73 = phi i32 [ %.pre24, %70 ], [ %39, %43 ]
  %74 = shl i32 %73, 8
  %75 = and i32 %74, 2147483392
  store i32 %75, ptr %23, align 4, !tbaa !15
  %76 = shl i32 %72, 8
  store i32 %76, ptr %18, align 8, !tbaa !8
  %77 = load i32, ptr %36, align 8, !tbaa !21
  %78 = add i32 %77, 8
  store i32 %78, ptr %36, align 8, !tbaa !21
  %79 = icmp ult i32 %76, 8388609
  br i1 %79, label %37, label %opus_rc_enc_normalize.exit, !llvm.loop !29

opus_rc_enc_normalize.exit:                       ; preds = %opus_rc_enc_carryout.exit.i, %17
  ret void
}